target datalayout = "e-m:e-p270:32:32-p271:32:32-p272:64:64-i64:64-i128:128-f80:128-n8:16:32:64-S128"
target triple = "x86_64-unknown-linux-gnu"

%"class.zmq::stream_listener_base_t" = type { %"class.zmq::own_t.base", %"class.zmq::io_object_t", i32, ptr, ptr, %"class.std::__cxx11::basic_string" }
%"class.zmq::own_t.base" = type <{ %"class.zmq::object_t.base", [4 x i8], %"struct.zmq::options_t", i8, [7 x i8], %"class.zmq::atomic_counter_t", i64, ptr, %"class.std::set.28", i32 }>
%"class.zmq::object_t.base" = type <{ ptr, ptr, i32 }>
%"struct.zmq::options_t" = type { i32, i32, i64, i8, [256 x i8], i32, i32, i32, i32, i32, i32, i32, i32, i8, %"struct.zmq::atomic_value_t", i32, i32, i32, i32, i32, i32, i64, i32, i32, i8, i32, i8, i8, i8, i8, i8, %"class.std::__cxx11::basic_string", %"class.std::__cxx11::basic_string", %"class.std::__cxx11::basic_string", i32, i32, i32, i32, %"class.std::vector", %"class.std::set", %"class.std::set", %"class.std::set.6", i32, i32, %"class.std::__cxx11::basic_string", %"class.std::__cxx11::basic_string", %"class.std::__cxx11::basic_string", [32 x i8], [32 x i8], [32 x i8], %"class.std::__cxx11::basic_string", %"class.std::__cxx11::basic_string", i32, i32, i8, i32, i8, i32, i8, i16, i32, i32, i32, %"class.std::__cxx11::basic_string", i8, i8, i8, i32, i32, i8, i32, %"class.std::map", i32, %"class.std::__cxx11::basic_string", %"class.std::__cxx11::basic_string", %"class.std::__cxx11::basic_string", %"class.std::__cxx11::basic_string", i8, %"class.std::vector.21", i8, %"class.std::vector.21", i8, %"class.std::vector.21", i8, i32, i8, i32, i32, i32, i32, i32, i8, i32 }
%"struct.zmq::atomic_value_t" = type { %"struct.std::atomic" }
%"struct.std::atomic" = type { %"struct.std::__atomic_base" }
%"struct.std::__atomic_base" = type { i32 }
%"class.std::vector" = type { %"struct.std::_Vector_base" }
%"struct.std::_Vector_base" = type { %"struct.std::_Vector_base<zmq::tcp_address_mask_t, std::allocator<zmq::tcp_address_mask_t>>::_Vector_impl" }
%"struct.std::_Vector_base<zmq::tcp_address_mask_t, std::allocator<zmq::tcp_address_mask_t>>::_Vector_impl" = type { %"struct.std::_Vector_base<zmq::tcp_address_mask_t, std::allocator<zmq::tcp_address_mask_t>>::_Vector_impl_data" }
%"struct.std::_Vector_base<zmq::tcp_address_mask_t, std::allocator<zmq::tcp_address_mask_t>>::_Vector_impl_data" = type { ptr, ptr, ptr }
%"class.std::set" = type { %"class.std::_Rb_tree" }
%"class.std::_Rb_tree" = type { %"struct.std::_Rb_tree<unsigned int, unsigned int, std::_Identity<unsigned int>, std::less<unsigned int>>::_Rb_tree_impl" }
%"struct.std::_Rb_tree<unsigned int, unsigned int, std::_Identity<unsigned int>, std::less<unsigned int>>::_Rb_tree_impl" = type { %"struct.std::_Rb_tree_key_compare", %"struct.std::_Rb_tree_header" }
%"struct.std::_Rb_tree_key_compare" = type { %"struct.std::less" }
%"struct.std::less" = type { i8 }
%"struct.std::_Rb_tree_header" = type { %"struct.std::_Rb_tree_node_base", i64 }
%"struct.std::_Rb_tree_node_base" = type { i32, ptr, ptr, ptr }
%"class.std::set.6" = type { %"class.std::_Rb_tree.7" }
%"class.std::_Rb_tree.7" = type { %"struct.std::_Rb_tree<int, int, std::_Identity<int>, std::less<int>>::_Rb_tree_impl" }
%"struct.std::_Rb_tree<int, int, std::_Identity<int>, std::less<int>>::_Rb_tree_impl" = type { %"struct.std::_Rb_tree_key_compare.11", %"struct.std::_Rb_tree_header" }
%"struct.std::_Rb_tree_key_compare.11" = type { %"struct.std::less.12" }
%"struct.std::less.12" = type { i8 }
%"class.std::map" = type { %"class.std::_Rb_tree.14" }
%"class.std::_Rb_tree.14" = type { %"struct.std::_Rb_tree<std::__cxx11::basic_string<char>, std::pair<const std::__cxx11::basic_string<char>, std::__cxx11::basic_string<char>>, std::_Select1st<std::pair<const std::__cxx11::basic_string<char>, std::__cxx11::basic_string<char>>>, std::less<std::__cxx11::basic_string<char>>>::_Rb_tree_impl" }
%"struct.std::_Rb_tree<std::__cxx11::basic_string<char>, std::pair<const std::__cxx11::basic_string<char>, std::__cxx11::basic_string<char>>, std::_Select1st<std::pair<const std::__cxx11::basic_string<char>, std::__cxx11::basic_string<char>>>, std::less<std::__cxx11::basic_string<char>>>::_Rb_tree_impl" = type { %"struct.std::_Rb_tree_key_compare.18", %"struct.std::_Rb_tree_header" }
%"struct.std::_Rb_tree_key_compare.18" = type { %"struct.std::less.19" }
%"struct.std::less.19" = type { i8 }
%"class.std::vector.21" = type { %"struct.std::_Vector_base.22" }
%"struct.std::_Vector_base.22" = type { %"struct.std::_Vector_base<unsigned char, std::allocator<unsigned char>>::_Vector_impl" }
%"struct.std::_Vector_base<unsigned char, std::allocator<unsigned char>>::_Vector_impl" = type { %"struct.std::_Vector_base<unsigned char, std::allocator<unsigned char>>::_Vector_impl_data" }
%"struct.std::_Vector_base<unsigned char, std::allocator<unsigned char>>::_Vector_impl_data" = type { ptr, ptr, ptr }
%"class.zmq::atomic_counter_t" = type { %"struct.std::atomic.26", [4 x i8] }
%"struct.std::atomic.26" = type { %"struct.std::__atomic_base.27" }
%"struct.std::__atomic_base.27" = type { i32 }
%"class.std::set.28" = type { %"class.std::_Rb_tree.29" }
%"class.std::_Rb_tree.29" = type { %"struct.std::_Rb_tree<zmq::own_t *, zmq::own_t *, std::_Identity<zmq::own_t *>, std::less<zmq::own_t *>>::_Rb_tree_impl" }
%"struct.std::_Rb_tree<zmq::own_t *, zmq::own_t *, std::_Identity<zmq::own_t *>, std::less<zmq::own_t *>>::_Rb_tree_impl" = type { %"struct.std::_Rb_tree_key_compare.33", %"struct.std::_Rb_tree_header" }
%"struct.std::_Rb_tree_key_compare.33" = type { %"struct.std::less.34" }
%"struct.std::less.34" = type { i8 }
%"class.zmq::io_object_t" = type { %"struct.zmq::i_poll_events", ptr }
%"struct.zmq::i_poll_events" = type { ptr }
%"class.std::__cxx11::basic_string" = type { %"struct.std::__cxx11::basic_string<char>::_Alloc_hider", i64, %union.anon }
%"struct.std::__cxx11::basic_string<char>::_Alloc_hider" = type { ptr }
%union.anon = type { i64, [8 x i8] }
%"struct.zmq::endpoint_uri_pair_t" = type <{ %"class.std::__cxx11::basic_string", %"class.std::__cxx11::basic_string", i32, [4 x i8] }>
%"class.zmq::own_t" = type <{ %"class.zmq::object_t.base", [4 x i8], %"struct.zmq::options_t", i8, [7 x i8], %"class.zmq::atomic_counter_t", i64, ptr, %"class.std::set.28", i32, [4 x i8] }>

; Function Attrs: mustprogress nounwind uwtable
define linkonce_odr void @_ZN3zmq19endpoint_uri_pair_tD2Ev(ptr noundef nonnull align 8 dereferenceable(68) %this) unnamed_addr #3 comdat align 2 {
entry:
  %this.addr = alloca ptr, align 8
  store ptr %this, ptr %this.addr, align 8
  %this1 = load ptr, ptr %this.addr, align 8
  %remote = getelementptr inbounds %"struct.zmq::endpoint_uri_pair_t", ptr %this1, i32 0, i32 1
  call void @_ZNSt7__cxx1112basic_stringIcSt11char_traitsIcESaIcEED1Ev(ptr noundef nonnull align 8 dereferenceable(32) %remote) #9
  %local = getelementptr inbounds %"struct.zmq::endpoint_uri_pair_t", ptr %this1, i32 0, i32 0
  call void @_ZNSt7__cxx1112basic_stringIcSt11char_traitsIcESaIcEED1Ev(ptr noundef nonnull align 8 dereferenceable(32) %local) #9
  ret void
}

; Function Attrs: mustprogress uwtable
define void @_ZN3zmq14tcp_listener_t8in_eventEv(ptr noundef nonnull align 8 dereferenceable(1584) %this) unnamed_addr #0 align 2 personality ptr @__gxx_personality_v0 {
entry:
  %this.addr = alloca ptr, align 8
  %fd = alloca i32, align 4
  %ref.tmp = alloca %"struct.zmq::endpoint_uri_pair_t", align 8
  %exn.slot = alloca ptr, align 8
  %ehselector.slot = alloca i32, align 4
  %rc = alloca i32, align 4
  %ref.tmp15 = alloca %"struct.zmq::endpoint_uri_pair_t", align 8
  store ptr %this, ptr %this.addr, align 8
  %this1 = load ptr, ptr %this.addr, align 8
  %call = call noundef i32 @_ZN3zmq14tcp_listener_t6acceptEv(ptr noundef nonnull align 8 dereferenceable(1584) %this1)
  store i32 %call, ptr %fd, align 4
  %0 = load i32, ptr %fd, align 4
  %cmp = icmp eq i32 %0, -1
  br i1 %cmp, label %if.then, label %if.end

if.then:                                          ; preds = %entry
  %_socket = getelementptr inbounds %"class.zmq::stream_listener_base_t", ptr %this1, i32 0, i32 4
  %1 = load ptr, ptr %_socket, align 8
  %_endpoint = getelementptr inbounds %"class.zmq::stream_listener_base_t", ptr %this1, i32 0, i32 5
  call void @_ZN3zmq35make_unconnected_bind_endpoint_pairERKNSt7__cxx1112basic_stringIcSt11char_traitsIcESaIcEEE(ptr sret(%"struct.zmq::endpoint_uri_pair_t") align 8 %ref.tmp, ptr noundef nonnull align 8 dereferenceable(32) %_endpoint)
  %call2 = invoke i32 @zmq_errno()
          to label %invoke.cont unwind label %lpad

invoke.cont:                                      ; preds = %if.then
  invoke void @_ZN3zmq13socket_base_t19event_accept_failedERKNS_19endpoint_uri_pair_tEi(ptr noundef nonnull align 8 dereferenceable(1825) %1, ptr noundef nonnull align 8 dereferenceable(68) %ref.tmp, i32 noundef %call2)
          to label %invoke.cont3 unwind label %lpad

invoke.cont3:                                     ; preds = %invoke.cont
  call void @_ZN3zmq19endpoint_uri_pair_tD2Ev(ptr noundef nonnull align 8 dereferenceable(68) %ref.tmp) #9
  br label %return

lpad:                                             ; preds = %invoke.cont, %if.then
  %2 = landingpad { ptr, i32 }
          cleanup
  %3 = extractvalue { ptr, i32 } %2, 0
  store ptr %3, ptr %exn.slot, align 8
  %4 = extractvalue { ptr, i32 } %2, 1
  store i32 %4, ptr %ehselector.slot, align 4
  call void @_ZN3zmq19endpoint_uri_pair_tD2Ev(ptr noundef nonnull align 8 dereferenceable(68) %ref.tmp) #9
  br label %eh.resume

if.end:                                           ; preds = %entry
  %5 = load i32, ptr %fd, align 4
  %call4 = call noundef i32 @_ZN3zmq15tune_tcp_socketEi(i32 noundef %5)
  store i32 %call4, ptr %rc, align 4
  %6 = load i32, ptr %rc, align 4
  %7 = load i32, ptr %fd, align 4
  %options = getelementptr inbounds %"class.zmq::own_t", ptr %this1, i32 0, i32 2
  %tcp_keepalive = getelementptr inbounds %"struct.zmq::options_t", ptr %options, i32 0, i32 34
  %8 = load i32, ptr %tcp_keepalive, align 8
  %options5 = getelementptr inbounds %"class.zmq::own_t", ptr %this1, i32 0, i32 2
  %tcp_keepalive_cnt = getelementptr inbounds %"struct.zmq::options_t", ptr %options5, i32 0, i32 35
  %9 = load i32, ptr %tcp_keepalive_cnt, align 4
  %options6 = getelementptr inbounds %"class.zmq::own_t", ptr %this1, i32 0, i32 2
  %tcp_keepalive_idle = getelementptr inbounds %"struct.zmq::options_t", ptr %options6, i32 0, i32 36
  %10 = load i32, ptr %tcp_keepalive_idle, align 8
  %options7 = getelementptr inbounds %"class.zmq::own_t", ptr %this1, i32 0, i32 2
  %tcp_keepalive_intvl = getelementptr inbounds %"struct.zmq::options_t", ptr %options7, i32 0, i32 37
  %11 = load i32, ptr %tcp_keepalive_intvl, align 4
  %call8 = call noundef i32 @_ZN3zmq19tune_tcp_keepalivesEiiiii(i32 noundef %7, i32 noundef %8, i32 noundef %9, i32 noundef %10, i32 noundef %11)
  %or = or i32 %6, %call8
  store i32 %or, ptr %rc, align 4
  %12 = load i32, ptr %rc, align 4
  %13 = load i32, ptr %fd, align 4
  %options9 = getelementptr inbounds %"class.zmq::own_t", ptr %this1, i32 0, i32 2
  %tcp_maxrt = getelementptr inbounds %"struct.zmq::options_t", ptr %options9, i32 0, i32 16
  %14 = load i32, ptr %tcp_maxrt, align 8
  %call10 = call noundef i32 @_ZN3zmq14tune_tcp_maxrtEii(i32 noundef %13, i32 noundef %14)
  %or11 = or i32 %12, %call10
  store i32 %or11, ptr %rc, align 4
  %15 = load i32, ptr %rc, align 4
  %cmp12 = icmp ne i32 %15, 0
  br i1 %cmp12, label %if.then13, label %if.end21

if.then13:                                        ; preds = %if.end
  %_socket14 = getelementptr inbounds %"class.zmq::stream_listener_base_t", ptr %this1, i32 0, i32 4
  %16 = load ptr, ptr %_socket14, align 8
  %_endpoint16 = getelementptr inbounds %"class.zmq::stream_listener_base_t", ptr %this1, i32 0, i32 5
  call void @_ZN3zmq35make_unconnected_bind_endpoint_pairERKNSt7__cxx1112basic_stringIcSt11char_traitsIcESaIcEEE(ptr sret(%"struct.zmq::endpoint_uri_pair_t") align 8 %ref.tmp15, ptr noundef nonnull align 8 dereferenceable(32) %_endpoint16)
  %call19 = invoke i32 @zmq_errno()
          to label %invoke.cont18 unwind label %lpad17

invoke.cont18:                                    ; preds = %if.then13
  invoke void @_ZN3zmq13socket_base_t19event_accept_failedERKNS_19endpoint_uri_pair_tEi(ptr noundef nonnull align 8 dereferenceable(1825) %16, ptr noundef nonnull align 8 dereferenceable(68) %ref.tmp15, i32 noundef %call19)
          to label %invoke.cont20 unwind label %lpad17

invoke.cont20:                                    ; preds = %invoke.cont18
  call void @_ZN3zmq19endpoint_uri_pair_tD2Ev(ptr noundef nonnull align 8 dereferenceable(68) %ref.tmp15) #9
  br label %return

lpad17:                                           ; preds = %invoke.cont18, %if.then13
  %17 = landingpad { ptr, i32 }
          cleanup
  %18 = extractvalue { ptr, i32 } %17, 0
  store ptr %18, ptr %exn.slot, align 8
  %19 = extractvalue { ptr, i32 } %17, 1
  store i32 %19, ptr %ehselector.slot, align 4
  call void @_ZN3zmq19endpoint_uri_pair_tD2Ev(ptr noundef nonnull align 8 dereferenceable(68) %ref.tmp15) #9
  br label %eh.resume

if.end21:                                         ; preds = %if.end
  %20 = load i32, ptr %fd, align 4
  call void @_ZN3zmq22stream_listener_base_t13create_engineEi(ptr noundef nonnull align 8 dereferenceable(1520) %this1, i32 noundef %20)
  br label %return

return:                                           ; preds = %if.end21, %invoke.cont20, %invoke.cont3
  ret void

eh.resume:                                        ; preds = %lpad17, %lpad
  %exn = load ptr, ptr %exn.slot, align 8
  %sel = load i32, ptr %ehselector.slot, align 4
  %lpad.val = insertvalue { ptr, i32 } poison, ptr %exn, 0
  %lpad.val22 = insertvalue { ptr, i32 } %lpad.val, i32 %sel, 1
  resume { ptr, i32 } %lpad.val22
}