; Function Attrs: mustprogress uwtable
define void @_ZN3zmq14tcp_listener_t8in_eventEv(ptr noundef nonnull align 8 dereferenceable(1584) %this) unnamed_addr #0 align 2 personality ptr @__gxx_personality_v0 {
entry:
  %ref.tmp = alloca %"struct.zmq::endpoint_uri_pair_t", align 8
  %ref.tmp15 = alloca %"struct.zmq::endpoint_uri_pair_t", align 8
  %call = tail call noundef i32 @_ZN3zmq14tcp_listener_t6acceptEv(ptr noundef nonnull align 8 dereferenceable(1584) %this)
  %cmp = icmp eq i32 %call, -1
  %ref.tmp15.sink11.sroa.gep = getelementptr inbounds i8, ptr %ref.tmp15, i64 32
  %ref.tmp15.sink11.sroa.gep12 = getelementptr inbounds i8, ptr %ref.tmp, i64 32
  br i1 %cmp, label %if.then, label %if.end

if.then:                                          ; preds = %entry
  %_socket = getelementptr inbounds i8, ptr %this, i64 1480
  %0 = load ptr, ptr %_socket, align 8
  %_endpoint = getelementptr inbounds i8, ptr %this, i64 1488
  call void @_ZN3zmq35make_unconnected_bind_endpoint_pairERKNSt7__cxx1112basic_stringIcSt11char_traitsIcESaIcEEE(ptr nonnull sret(%"struct.zmq::endpoint_uri_pair_t") align 8 %ref.tmp, ptr noundef nonnull align 8 dereferenceable(32) %_endpoint)
  %call2 = invoke i32 @zmq_errno()
          to label %invoke.cont unwind label %lpad

invoke.cont:                                      ; preds = %if.then
  invoke void @_ZN3zmq13socket_base_t19event_accept_failedERKNS_19endpoint_uri_pair_tEi(ptr noundef nonnull align 8 dereferenceable(1825) %0, ptr noundef nonnull align 8 dereferenceable(68) %ref.tmp, i32 noundef %call2)
          to label %invoke.cont3 unwind label %lpad

invoke.cont3:                                     ; preds = %invoke.cont
  %remote.i = getelementptr inbounds i8, ptr %ref.tmp, i64 32
  call void @_ZNSt7__cxx1112basic_stringIcSt11char_traitsIcESaIcEED1Ev(ptr noundef nonnull align 8 dereferenceable(32) %remote.i) #11
  call void @_ZNSt7__cxx1112basic_stringIcSt11char_traitsIcESaIcEED1Ev(ptr noundef nonnull align 8 dereferenceable(32) %ref.tmp) #11
  br label %return

lpad:                                             ; preds = %invoke.cont, %if.then
  %1 = landingpad { ptr, i32 }
          cleanup
  br label %eh.resume

if.end:                                           ; preds = %entry
  %call4 = tail call noundef i32 @_ZN3zmq15tune_tcp_socketEi(i32 noundef %call)
  %tcp_keepalive = getelementptr inbounds i8, ptr %this, i64 496
  %2 = load i32, ptr %tcp_keepalive, align 8
  %tcp_keepalive_cnt = getelementptr inbounds i8, ptr %this, i64 500
  %3 = load i32, ptr %tcp_keepalive_cnt, align 4
  %tcp_keepalive_idle = getelementptr inbounds i8, ptr %this, i64 504
  %4 = load i32, ptr %tcp_keepalive_idle, align 8
  %tcp_keepalive_intvl = getelementptr inbounds i8, ptr %this, i64 508
  %5 = load i32, ptr %tcp_keepalive_intvl, align 4
  %call8 = tail call noundef i32 @_ZN3zmq19tune_tcp_keepalivesEiiiii(i32 noundef %call, i32 noundef %2, i32 noundef %3, i32 noundef %4, i32 noundef %5)
  %or = or i32 %call8, %call4
  %tcp_maxrt = getelementptr inbounds i8, ptr %this, i64 344
  %6 = load i32, ptr %tcp_maxrt, align 8
  %call10 = tail call noundef i32 @_ZN3zmq14tune_tcp_maxrtEii(i32 noundef %call, i32 noundef %6)
  %or11 = or i32 %or, %call10
  %cmp12.not = icmp eq i32 %or11, 0
  br i1 %cmp12.not, label %if.end21, label %if.then13

if.then13:                                        ; preds = %if.end
  %_socket14 = getelementptr inbounds i8, ptr %this, i64 1480
  %7 = load ptr, ptr %_socket14, align 8
  %_endpoint16 = getelementptr inbounds i8, ptr %this, i64 1488
  call void @_ZN3zmq35make_unconnected_bind_endpoint_pairERKNSt7__cxx1112basic_stringIcSt11char_traitsIcESaIcEEE(ptr nonnull sret(%"struct.zmq::endpoint_uri_pair_t") align 8 %ref.tmp15, ptr noundef nonnull align 8 dereferenceable(32) %_endpoint16)
  %call19 = invoke i32 @zmq_errno()
          to label %invoke.cont18 unwind label %lpad17

invoke.cont18:                                    ; preds = %if.then13
  invoke void @_ZN3zmq13socket_base_t19event_accept_failedERKNS_19endpoint_uri_pair_tEi(ptr noundef nonnull align 8 dereferenceable(1825) %7, ptr noundef nonnull align 8 dereferenceable(68) %ref.tmp15, i32 noundef %call19)
          to label %invoke.cont20 unwind label %lpad17

invoke.cont20:                                    ; preds = %invoke.cont18
  %remote.i9 = getelementptr inbounds i8, ptr %ref.tmp15, i64 32
  call void @_ZNSt7__cxx1112basic_stringIcSt11char_traitsIcESaIcEED1Ev(ptr noundef nonnull align 8 dereferenceable(32) %remote.i9) #11
  call void @_ZNSt7__cxx1112basic_stringIcSt11char_traitsIcESaIcEED1Ev(ptr noundef nonnull align 8 dereferenceable(32) %ref.tmp15) #11
  br label %return

lpad17:                                           ; preds = %invoke.cont18, %if.then13
  %8 = landingpad { ptr, i32 }
          cleanup
  br label %eh.resume

if.end21:                                         ; preds = %if.end
  tail call void @_ZN3zmq22stream_listener_base_t13create_engineEi(ptr noundef nonnull align 8 dereferenceable(1520) %this, i32 noundef %call)
  br label %return

return:                                           ; preds = %if.end21, %invoke.cont20, %invoke.cont3
  ret void

eh.resume:                                        ; preds = %lpad17, %lpad
  %ref.tmp15.sink11.sroa.phi = phi ptr [ %ref.tmp15.sink11.sroa.gep, %lpad17 ], [ %ref.tmp15.sink11.sroa.gep12, %lpad ]
  %ref.tmp15.sink11 = phi ptr [ %ref.tmp15, %lpad17 ], [ %ref.tmp, %lpad ]
  %.pn = phi { ptr, i32 } [ %8, %lpad17 ], [ %1, %lpad ]
  call void @_ZNSt7__cxx1112basic_stringIcSt11char_traitsIcESaIcEED1Ev(ptr noundef nonnull align 8 dereferenceable(32) %ref.tmp15.sink11.sroa.phi) #11
  call void @_ZNSt7__cxx1112basic_stringIcSt11char_traitsIcESaIcEED1Ev(ptr noundef nonnull align 8 dereferenceable(32) %ref.tmp15.sink11) #11
  resume { ptr, i32 } %.pn
}